

Microchip Technology PIC18 PRO Macro Assembler V1.34 build -361300703 
                                                                                               Thu May 14 22:45:20 2015

Microchip Technology Omniscient Code Generator (PRO mode) build 201502162209
     1                           	processor	18F4431
     2                           	fnconf	rparam,??,?,0
     3                           	opt	pw 120
     4                           	opt	pm
     5                           	psect	intcode_body,global,reloc=2,class=CODE,delta=1
     6                           	psect	cinit,global,reloc=2,class=CODE,delta=1
     7                           	psect	cstackCOMRAM,global,class=COMRAM,space=1,delta=1
     8                           	psect	text0,global,reloc=2,class=CODE,delta=1
     9                           	psect	text1,global,reloc=2,class=CODE,delta=1
    10                           	psect	text2,global,reloc=2,class=CODE,delta=1
    11                           	psect	text3,global,reloc=2,class=CODE,delta=1
    12                           	psect	text4,global,reloc=2,class=CODE,delta=1
    13                           	psect	intcodelo,global,reloc=2,class=CODE,delta=1
    14                           	psect	text6,global,reloc=2,class=CODE,delta=1
    15                           	psect	text7,global,reloc=2,class=CODE,delta=1
    16                           	psect	text8,global,reloc=2,class=CODE,delta=1
    17                           	psect	intcode,global,reloc=2,class=CODE,delta=1
    18                           	psect	intsave_regs,global,class=BIGRAM,space=1,delta=1
    19                           	psect	rparam,global,class=COMRAM,space=1,delta=1
    20  0000                     _BAUDCONbits	set	4010
    21  0000                     _BAUDCTLbits	set	4010
    22  0000                     _INTCONbits	set	4082
    23  0000                     _IPR1bits	set	3999
    24  0000                     _PIE1bits	set	3997
    25  0000                     _PIR1bits	set	3998
    26  0000                     _PORTDbits	set	3971
    27  0000                     _RCONbits	set	4048
    28  0000                     _RCREG	set	4014
    29  0000                     _RCSTA	set	4011
    30  0000                     _RCSTAbits	set	4011
    31  0000                     _SPBRG	set	4015
    32  0000                     _SPBRGH	set	4016
    33  0000                     _TRISCbits	set	3988
    34  0000                     _TRISDbits	set	3989
    35  0000                     _TXREG	set	4013
    36  0000                     _TXSTA	set	4012
    37  0000                     _TXSTAbits	set	4012
    38                           
    39                           	psect	intcode_body
    40  0001B2                     __pintcode_body:
    41                           	opt stack 0
    42                           
    43                           ; #config settings
    44  0001B2                     int_func:
    45                           	opt stack 27
    46  0001B2  0011               	retfie		f
    47  0001B4                     __end_of_HighIsr:
    48                           	opt stack 0
    49  0000                     
    50                           	psect	cinit
    51  00019E                     __pcinit:
    52                           	opt stack 0
    53  00019E                     start_initialization:
    54                           	opt stack 0
    55  00019E                     __initialization:
    56                           	opt stack 0
    57  00019E                     end_of_initialization:
    58                           	opt stack 0
    59  00019E                     __end_of__initialization:
    60                           	opt stack 0
    61  00019E  0E00               	movlw	low (__Lmediumconst shr (0+16))
    62  0001A0  6EF8               	movwf	tblptru,c
    63  0001A2  0100               	movlb	0
    64  0001A4  EF87  F000         	goto	_main	;jump to C main() function
    65                           tblptru	equ	0xFF8
    66                           
    67                           	psect	cstackCOMRAM
    68  000001                     __pcstackCOMRAM:
    69                           	opt stack 0
    70  000001                     ??_InputC1:
    71  000001                     ??_InputC2:
    72  000001                     UartSendByte@data:
    73                           	opt stack 0
    74                           
    75                           ; 1 bytes @ 0x0
    76  000001                     	ds	1
    77  000002                     ??_LowIsr:
    78                           
    79                           ; 0 bytes @ 0x1
    80  000002                     	ds	3
    81  000005                     delay_ms@delay:
    82                           	opt stack 0
    83  000005                     UARTInit@baudrate:
    84                           	opt stack 0
    85                           
    86                           ; 4 bytes @ 0x4
    87  000005                     	ds	2
    88  000007                     ??_delay_ms:
    89                           
    90                           ; 0 bytes @ 0x6
    91  000007                     	ds	1
    92  000008                     delay_ms@i:
    93                           	opt stack 0
    94                           
    95                           ; 2 bytes @ 0x7
    96  000008                     	ds	1
    97  000009                     ??_UARTInit:
    98                           
    99                           ; 0 bytes @ 0x8
   100  000009                     	ds	4
   101  00000D                     UARTInit@divisor:
   102                           	opt stack 0
   103                           
   104                           ; 2 bytes @ 0xC
   105  00000D                     	ds	2
   106  00000F                     tblptru	equ	0xFF8
   107                           
   108                           ; 0 bytes @ 0xE
   109 ;;
   110 ;;Main: autosize = 0, tempsize = 0, incstack = 0, save=0
   111 ;;
   112 ;; *************** function _main *****************
   113 ;; Defined at:
   114 ;;		line 85 in file "main.c"
   115 ;; Parameters:    Size  Location     Type
   116 ;;		None
   117 ;; Auto vars:     Size  Location     Type
   118 ;;  array           3    0        unsigned char [3]
   119 ;; Return value:  Size  Location     Type
   120 ;;                  2   43[None  ] int 
   121 ;; Registers used:
   122 ;;		wreg, status,2, status,0, cstack
   123 ;; Tracked objects:
   124 ;;		On entry : 0/0
   125 ;;		On exit  : 0/0
   126 ;;		Unchanged: 0/0
   127 ;; Data sizes:     COMRAM   BANK0   BANK1   BANK2
   128 ;;      Params:         0       0       0       0
   129 ;;      Locals:         0       0       0       0
   130 ;;      Temps:          0       0       0       0
   131 ;;      Totals:         0       0       0       0
   132 ;;Total ram usage:        0 bytes
   133 ;; Hardware stack levels required when called:    4
   134 ;; This function calls:
   135 ;;		_InputInit
   136 ;;		_UARTAddressDetection_OFF
   137 ;;		_UARTInit
   138 ;;		_delay_ms
   139 ;; This function is called by:
   140 ;;		Startup code after reset
   141 ;; This function uses a non-reentrant model
   142 ;;
   143                           
   144                           	psect	text0
   145  00010E                     __ptext0:
   146                           	opt stack 0
   147  00010E                     _main:
   148                           	opt stack 27
   149                           
   150                           ;main.c: 88: UARTInit(921600);
   151                           
   152                           ;incstack = 0
   153  00010E  6A05               	clrf	UARTInit@baudrate,c
   154  000110  0E10               	movlw	16
   155  000112  6E06               	movwf	UARTInit@baudrate+1,c
   156  000114  0E0E               	movlw	14
   157  000116  6E07               	movwf	UARTInit@baudrate+2,c
   158  000118  6A08               	clrf	UARTInit@baudrate+3,c
   159  00011A  EC33  F000         	call	_UARTInit	;wreg free
   160                           
   161                           ;main.c: 89: UARTAddressDetection_OFF();
   162  00011E  ECD7  F000         	call	_UARTAddressDetection_OFF	;wreg free
   163                           
   164                           ;main.c: 90: InputInit();
   165  000122  ECD4  F000         	call	_InputInit	;wreg free
   166                           
   167                           ;main.c: 92: RCONbits.IPEN = 1;
   168  000126  8ED0               	bsf	4048,7,c	;volatile
   169                           
   170                           ;main.c: 93: INTCONbits.GIEH = 1;
   171  000128  8EF2               	bsf	intcon,7,c	;volatile
   172                           
   173                           ;main.c: 94: INTCONbits.GIEL = 1;
   174  00012A  8CF2               	bsf	intcon,6,c	;volatile
   175                           
   176                           ;main.c: 96: delay_ms(1);
   177  00012C  6A06               	clrf	delay_ms@delay+1,c
   178  00012E  0E01               	movlw	1
   179  000130  6E05               	movwf	delay_ms@delay,c
   180  000132  ECA2  F000         	call	_delay_ms	;wreg free
   181  000136                     l46:
   182                           
   183                           ;main.c: 99: {
   184                           ;main.c: 101: delay_ms(1000);
   185  000136  0E03               	movlw	3
   186  000138  6E06               	movwf	delay_ms@delay+1,c
   187  00013A  0EE8               	movlw	232
   188  00013C  6E05               	movwf	delay_ms@delay,c
   189  00013E  ECA2  F000         	call	_delay_ms	;wreg free
   190  000142  D7F9               	goto	l46
   191  000144                     __end_of_main:
   192                           	opt stack 0
   193                           tblptru	equ	0xFF8
   194                           intcon	equ	0xFF2
   195                           
   196 ;; *************** function _delay_ms *****************
   197 ;; Defined at:
   198 ;;		line 78 in file "main.c"
   199 ;; Parameters:    Size  Location     Type
   200 ;;  delay           2    4[COMRAM] unsigned int 
   201 ;; Auto vars:     Size  Location     Type
   202 ;;  i               2    7[COMRAM] int 
   203 ;; Return value:  Size  Location     Type
   204 ;;		None               void
   205 ;; Registers used:
   206 ;;		wreg, status,2, status,0
   207 ;; Tracked objects:
   208 ;;		On entry : 0/0
   209 ;;		On exit  : 0/0
   210 ;;		Unchanged: 0/0
   211 ;; Data sizes:     COMRAM   BANK0   BANK1   BANK2
   212 ;;      Params:         2       0       0       0
   213 ;;      Locals:         2       0       0       0
   214 ;;      Temps:          1       0       0       0
   215 ;;      Totals:         5       0       0       0
   216 ;;Total ram usage:        5 bytes
   217 ;; Hardware stack levels used:    1
   218 ;; Hardware stack levels required when called:    3
   219 ;; This function calls:
   220 ;;		Nothing
   221 ;; This function is called by:
   222 ;;		_main
   223 ;; This function uses a non-reentrant model
   224 ;;
   225                           
   226                           	psect	text1
   227  000144                     __ptext1:
   228                           	opt stack 0
   229  000144                     _delay_ms:
   230                           	opt stack 27
   231                           
   232                           ;main.c: 80: int i;
   233                           ;main.c: 81: for (i = 0; i < delay; i++)
   234                           
   235                           ;incstack = 0
   236  000144  6A08               	clrf	delay_ms@i,c
   237  000146  6A09               	clrf	delay_ms@i+1,c
   238  000148  D009               	goto	l38
   239  00014A                     l848:
   240                           
   241                           ;main.c: 82: _delay((unsigned long)((1)*(40000000/4000.0)));
   242  00014A  0E0D               	movlw	13
   243  00014C  6E07               	movwf	??_delay_ms& (0+255),c
   244  00014E  0EFC               	movlw	252
   245  000150                     u117:
   246  000150  2EE8               	decfsz	wreg,f,c
   247  000152  D7FE               	goto	u117
   248  000154  2E07               	decfsz	??_delay_ms& (0+255),f,c
   249  000156  D7FC               	goto	u117
   250  000158  4A08               	infsnz	delay_ms@i,f,c
   251  00015A  2A09               	incf	delay_ms@i+1,f,c
   252  00015C                     l38:
   253  00015C  5005               	movf	delay_ms@delay,w,c
   254  00015E  5C08               	subwf	delay_ms@i,w,c
   255  000160  5006               	movf	delay_ms@delay+1,w,c
   256  000162  5809               	subwfb	delay_ms@i+1,w,c
   257  000164  B0D8               	btfsc	status,0,c
   258  000166  0012               	return		;funcret
   259  000168  D7F0               	goto	l848
   260  00016A                     __end_of_delay_ms:
   261                           	opt stack 0
   262                           tblptru	equ	0xFF8
   263                           intcon	equ	0xFF2
   264                           wreg	equ	0xFE8
   265                           status	equ	0xFD8
   266                           
   267 ;; *************** function _UARTInit *****************
   268 ;; Defined at:
   269 ;;		line 8 in file "uart.c"
   270 ;; Parameters:    Size  Location     Type
   271 ;;  baudrate        4    4[COMRAM] unsigned long 
   272 ;; Auto vars:     Size  Location     Type
   273 ;;  divisor         2   12[COMRAM] unsigned int 
   274 ;; Return value:  Size  Location     Type
   275 ;;		None               void
   276 ;; Registers used:
   277 ;;		wreg, status,2, status,0
   278 ;; Tracked objects:
   279 ;;		On entry : 0/0
   280 ;;		On exit  : 0/0
   281 ;;		Unchanged: 0/0
   282 ;; Data sizes:     COMRAM   BANK0   BANK1   BANK2
   283 ;;      Params:         4       0       0       0
   284 ;;      Locals:         2       0       0       0
   285 ;;      Temps:          4       0       0       0
   286 ;;      Totals:        10       0       0       0
   287 ;;Total ram usage:       10 bytes
   288 ;; Hardware stack levels used:    1
   289 ;; Hardware stack levels required when called:    3
   290 ;; This function calls:
   291 ;;		Nothing
   292 ;; This function is called by:
   293 ;;		_main
   294 ;; This function uses a non-reentrant model
   295 ;;
   296                           
   297                           	psect	text2
   298  000066                     __ptext2:
   299                           	opt stack 0
   300  000066                     _UARTInit:
   301                           	opt stack 27
   302                           
   303                           ;uart.c: 10: unsigned int divisor;
   304                           ;uart.c: 12: TRISCbits.RC6 = 1;
   305                           
   306                           ;incstack = 0
   307  000066  8C94               	bsf	3988,6,c	;volatile
   308                           
   309                           ;uart.c: 13: TRISCbits.RC7 = 1;
   310  000068  8E94               	bsf	3988,7,c	;volatile
   311                           
   312                           ;uart.c: 16: TRISDbits.RD4 = 0;
   313  00006A  9895               	bcf	3989,4,c	;volatile
   314                           
   315                           ;uart.c: 17: PORTDbits.RD4 = 0;
   316  00006C  9883               	bcf	3971,4,c	;volatile
   317                           
   318                           ;uart.c: 19: TXSTA = 0b00100110;
   319  00006E  0E26               	movlw	38
   320  000070  6EAC               	movwf	4012,c	;volatile
   321                           
   322                           ;uart.c: 20: RCSTA = 0b11010000;
   323  000072  0ED0               	movlw	208
   324  000074  6EAB               	movwf	4011,c	;volatile
   325                           
   326                           ;uart.c: 22: BAUDCTLbits.BRG16 = 1;
   327  000076  86AA               	bsf	4010,3,c	;volatile
   328                           
   329                           ;uart.c: 23: BAUDCTLbits.WUE = 0;
   330  000078  92AA               	bcf	4010,1,c	;volatile
   331                           
   332                           ;uart.c: 24: BAUDCONbits.ABDEN = 0;
   333  00007A  90AA               	bcf	4010,0,c	;volatile
   334                           
   335                           ;uart.c: 26: switch (baudrate)
   336  00007C  D012               	goto	l874
   337  00007E                     l862:
   338                           
   339                           ;uart.c: 29: divisor = 1040;
   340  00007E  0E04               	movlw	4
   341  000080  6E0E               	movwf	UARTInit@divisor+1,c
   342  000082  0E10               	movlw	16
   343  000084  D00C               	goto	L4
   344  000086                     l864:
   345                           
   346                           ;uart.c: 32: divisor = 520;
   347  000086  0E02               	movlw	2
   348  000088  6E0E               	movwf	UARTInit@divisor+1,c
   349  00008A  0E08               	movlw	8
   350  00008C  D008               	goto	L4
   351  00008E                     l866:
   352                           
   353                           ;uart.c: 35: divisor = 172;
   354  00008E  6A0E               	clrf	UARTInit@divisor+1,c
   355  000090  0EAC               	movlw	172
   356  000092  D005               	goto	L4
   357  000094                     l868:
   358                           
   359                           ;uart.c: 38: divisor = 86;
   360  000094  6A0E               	clrf	UARTInit@divisor+1,c
   361  000096  0E56               	movlw	86
   362  000098  D002               	goto	L4
   363  00009A                     l870:
   364                           
   365                           ;uart.c: 41: divisor = 10;
   366  00009A  6A0E               	clrf	UARTInit@divisor+1,c
   367  00009C  0E0A               	movlw	10
   368  00009E                     L4:
   369  00009E  6E0D               	movwf	UARTInit@divisor,c
   370                           
   371                           ;uart.c: 42: break;
   372  0000A0  D02F               	goto	l82
   373  0000A2                     l874:
   374  0000A2  C005  F009         	movff	UARTInit@baudrate,??_UARTInit
   375  0000A6  C006  F00A         	movff	UARTInit@baudrate+1,??_UARTInit+1
   376  0000AA  C007  F00B         	movff	UARTInit@baudrate+2,??_UARTInit+2
   377  0000AE  C008  F00C         	movff	UARTInit@baudrate+3,??_UARTInit+3
   378                           
   379                           ; Switch on 2 bytes has been partitioned into a top level switch of size 1, and 4 sub-sw
      +                          itches
   380                           ; Switch size 1, requested type "speed"
   381                           ; Number of cases is 1, Range of values is 0 to 0
   382                           ; switch strategies available:
   383                           ; Name         Instructions Cycles
   384                           ; simple_byte            4     3 (average)
   385                           ;	Chosen strategy is simple_byte
   386  0000B2  500C               	movf	??_UARTInit+3,w,c
   387  0000B4  E01F               	bz	l966
   388  0000B6  D024               	goto	l82
   389  0000B8                     l960:
   390                           
   391                           ; Switch on 2 bytes has been partitioned into a top level switch of size 1, and 3 sub-sw
      +                          itches
   392                           ; Switch size 1, requested type "speed"
   393                           ; Number of cases is 3, Range of values is 37 to 225
   394                           ; switch strategies available:
   395                           ; Name         Instructions Cycles
   396                           ; simple_byte           10     6 (average)
   397                           ;	Chosen strategy is simple_byte
   398  0000B8  500A               	movf	??_UARTInit+1,w,c
   399  0000BA  0A25               	xorlw	37	; case 37
   400  0000BC  E005               	bz	l968
   401  0000BE  0A6E               	xorlw	110	; case 75
   402  0000C0  E007               	bz	l970
   403  0000C2  0AAA               	xorlw	170	; case 225
   404  0000C4  E008               	bz	l972
   405  0000C6  D01C               	goto	l82
   406  0000C8                     l968:
   407                           
   408                           ; Switch size 1, requested type "speed"
   409                           ; Number of cases is 1, Range of values is 128 to 128
   410                           ; switch strategies available:
   411                           ; Name         Instructions Cycles
   412                           ; simple_byte            4     3 (average)
   413                           ;	Chosen strategy is simple_byte
   414  0000C8  5009               	movf	??_UARTInit,w,c
   415  0000CA  0A80               	xorlw	128	; case 128
   416  0000CC  E0D8               	bz	l862
   417  0000CE  D018               	goto	l82
   418  0000D0                     l970:
   419                           
   420                           ; Switch size 1, requested type "speed"
   421                           ; Number of cases is 1, Range of values is 0 to 0
   422                           ; switch strategies available:
   423                           ; Name         Instructions Cycles
   424                           ; simple_byte            4     3 (average)
   425                           ;	Chosen strategy is simple_byte
   426  0000D0  5009               	movf	??_UARTInit,w,c
   427  0000D2  E0D9               	bz	l864
   428  0000D4  D015               	goto	l82
   429  0000D6                     l972:
   430                           
   431                           ; Switch size 1, requested type "speed"
   432                           ; Number of cases is 1, Range of values is 0 to 0
   433                           ; switch strategies available:
   434                           ; Name         Instructions Cycles
   435                           ; simple_byte            4     3 (average)
   436                           ;	Chosen strategy is simple_byte
   437  0000D6  5009               	movf	??_UARTInit,w,c
   438  0000D8  E0DA               	bz	l866
   439  0000DA  D012               	goto	l82
   440  0000DC                     l962:
   441                           
   442                           ; Switch on 2 bytes has been partitioned into a top level switch of size 1, and 1 sub-sw
      +                          itches
   443                           ; Switch size 1, requested type "speed"
   444                           ; Number of cases is 1, Range of values is 194 to 194
   445                           ; switch strategies available:
   446                           ; Name         Instructions Cycles
   447                           ; simple_byte            4     3 (average)
   448                           ;	Chosen strategy is simple_byte
   449  0000DC  500A               	movf	??_UARTInit+1,w,c
   450  0000DE  0AC2               	xorlw	194	; case 194
   451  0000E0  E10F               	bnz	l82
   452                           
   453                           ; Switch size 1, requested type "speed"
   454                           ; Number of cases is 1, Range of values is 0 to 0
   455                           ; switch strategies available:
   456                           ; Name         Instructions Cycles
   457                           ; simple_byte            4     3 (average)
   458                           ;	Chosen strategy is simple_byte
   459  0000E2  5009               	movf	??_UARTInit,w,c
   460  0000E4  E0D7               	bz	l868
   461  0000E6  D00C               	goto	l82
   462  0000E8                     l964:
   463                           
   464                           ; Switch on 2 bytes has been partitioned into a top level switch of size 1, and 1 sub-sw
      +                          itches
   465                           ; Switch size 1, requested type "speed"
   466                           ; Number of cases is 1, Range of values is 16 to 16
   467                           ; switch strategies available:
   468                           ; Name         Instructions Cycles
   469                           ; simple_byte            4     3 (average)
   470                           ;	Chosen strategy is simple_byte
   471  0000E8  500A               	movf	??_UARTInit+1,w,c
   472  0000EA  0A10               	xorlw	16	; case 16
   473  0000EC  E109               	bnz	l82
   474                           
   475                           ; Switch size 1, requested type "speed"
   476                           ; Number of cases is 1, Range of values is 0 to 0
   477                           ; switch strategies available:
   478                           ; Name         Instructions Cycles
   479                           ; simple_byte            4     3 (average)
   480                           ;	Chosen strategy is simple_byte
   481  0000EE  5009               	movf	??_UARTInit,w,c
   482  0000F0  E0D4               	bz	l870
   483  0000F2  D006               	goto	l82
   484  0000F4                     l966:
   485                           
   486                           ; Switch size 1, requested type "speed"
   487                           ; Number of cases is 3, Range of values is 0 to 14
   488                           ; switch strategies available:
   489                           ; Name         Instructions Cycles
   490                           ; simple_byte           10     6 (average)
   491                           ;	Chosen strategy is simple_byte
   492  0000F4  500B               	movf	??_UARTInit+2,w,c
   493  0000F6  E0E0               	bz	l960
   494  0000F8  0A01               	xorlw	1	; case 1
   495  0000FA  E0F0               	bz	l962
   496  0000FC  0A0F               	xorlw	15	; case 14
   497  0000FE  E0F4               	bz	l964
   498  000100                     l82:
   499                           
   500                           ;uart.c: 45: SPBRG = divisor;
   501  000100  C00D  FFAF         	movff	UARTInit@divisor,4015	;volatile
   502                           
   503                           ;uart.c: 46: SPBRGH = divisor >> 8;
   504  000104  C00E  FFB0         	movff	UARTInit@divisor+1,4016	;volatile
   505                           
   506                           ;uart.c: 48: IPR1bits.RCIP = 0;
   507  000108  9A9F               	bcf	3999,5,c	;volatile
   508                           
   509                           ;uart.c: 49: PIE1bits.RCIE = 1;
   510  00010A  8A9D               	bsf	3997,5,c	;volatile
   511  00010C  0012               	return		;funcret
   512  00010E                     __end_of_UARTInit:
   513                           	opt stack 0
   514                           tblptru	equ	0xFF8
   515                           intcon	equ	0xFF2
   516                           wreg	equ	0xFE8
   517                           status	equ	0xFD8
   518                           
   519 ;; *************** function _UARTAddressDetection_OFF *****************
   520 ;; Defined at:
   521 ;;		line 95 in file "uart.c"
   522 ;; Parameters:    Size  Location     Type
   523 ;;		None
   524 ;; Auto vars:     Size  Location     Type
   525 ;;		None
   526 ;; Return value:  Size  Location     Type
   527 ;;		None               void
   528 ;; Registers used:
   529 ;;		None
   530 ;; Tracked objects:
   531 ;;		On entry : 0/0
   532 ;;		On exit  : 0/0
   533 ;;		Unchanged: 0/0
   534 ;; Data sizes:     COMRAM   BANK0   BANK1   BANK2
   535 ;;      Params:         0       0       0       0
   536 ;;      Locals:         0       0       0       0
   537 ;;      Temps:          0       0       0       0
   538 ;;      Totals:         0       0       0       0
   539 ;;Total ram usage:        0 bytes
   540 ;; Hardware stack levels used:    1
   541 ;; Hardware stack levels required when called:    3
   542 ;; This function calls:
   543 ;;		Nothing
   544 ;; This function is called by:
   545 ;;		_main
   546 ;; This function uses a non-reentrant model
   547 ;;
   548                           
   549                           	psect	text3
   550  0001AE                     __ptext3:
   551                           	opt stack 0
   552  0001AE                     _UARTAddressDetection_OFF:
   553                           	opt stack 27
   554                           
   555                           ;uart.c: 97: RCSTAbits.ADDEN = 0;
   556                           
   557                           ;incstack = 0
   558  0001AE  96AB               	bcf	4011,3,c	;volatile
   559  0001B0  0012               	return		;funcret
   560  0001B2                     __end_of_UARTAddressDetection_OFF:
   561                           	opt stack 0
   562                           tblptru	equ	0xFF8
   563                           intcon	equ	0xFF2
   564                           wreg	equ	0xFE8
   565                           status	equ	0xFD8
   566                           
   567 ;; *************** function _InputInit *****************
   568 ;; Defined at:
   569 ;;		line 7 in file "input.c"
   570 ;; Parameters:    Size  Location     Type
   571 ;;		None
   572 ;; Auto vars:     Size  Location     Type
   573 ;;		None
   574 ;; Return value:  Size  Location     Type
   575 ;;		None               void
   576 ;; Registers used:
   577 ;;		None
   578 ;; Tracked objects:
   579 ;;		On entry : 0/0
   580 ;;		On exit  : 0/0
   581 ;;		Unchanged: 0/0
   582 ;; Data sizes:     COMRAM   BANK0   BANK1   BANK2
   583 ;;      Params:         0       0       0       0
   584 ;;      Locals:         0       0       0       0
   585 ;;      Temps:          0       0       0       0
   586 ;;      Totals:         0       0       0       0
   587 ;;Total ram usage:        0 bytes
   588 ;; Hardware stack levels used:    1
   589 ;; Hardware stack levels required when called:    3
   590 ;; This function calls:
   591 ;;		Nothing
   592 ;; This function is called by:
   593 ;;		_main
   594 ;; This function uses a non-reentrant model
   595 ;;
   596                           
   597                           	psect	text4
   598  0001A8                     __ptext4:
   599                           	opt stack 0
   600  0001A8                     _InputInit:
   601                           	opt stack 27
   602                           
   603                           ;input.c: 10: TRISDbits.RD5 = 1;
   604                           
   605                           ;incstack = 0
   606  0001A8  8A95               	bsf	3989,5,c	;volatile
   607                           
   608                           ;input.c: 11: TRISDbits.RD6 = 1;
   609  0001AA  8C95               	bsf	3989,6,c	;volatile
   610  0001AC  0012               	return		;funcret
   611  0001AE                     __end_of_InputInit:
   612                           	opt stack 0
   613                           tblptru	equ	0xFF8
   614                           intcon	equ	0xFF2
   615                           wreg	equ	0xFE8
   616                           status	equ	0xFD8
   617                           
   618 ;; *************** function _LowIsr *****************
   619 ;; Defined at:
   620 ;;		line 51 in file "main.c"
   621 ;; Parameters:    Size  Location     Type
   622 ;;		None
   623 ;; Auto vars:     Size  Location     Type
   624 ;;  a               2    0        int 
   625 ;; Return value:  Size  Location     Type
   626 ;;		None               void
   627 ;; Registers used:
   628 ;;		wreg, status,0, cstack
   629 ;; Tracked objects:
   630 ;;		On entry : 0/0
   631 ;;		On exit  : 0/0
   632 ;;		Unchanged: 0/0
   633 ;; Data sizes:     COMRAM   BANK0   BANK1   BANK2
   634 ;;      Params:         0       0       0       0
   635 ;;      Locals:         0       0       0       0
   636 ;;      Temps:          3       0       0       0
   637 ;;      Totals:         3       0       0       0
   638 ;;Total ram usage:        3 bytes
   639 ;; Hardware stack levels used:    1
   640 ;; Hardware stack levels required when called:    2
   641 ;; This function calls:
   642 ;;		_InputC1
   643 ;;		_InputC2
   644 ;;		_UartSendByte
   645 ;; This function is called by:
   646 ;;		Interrupt level 1
   647 ;; This function uses a non-reentrant model
   648 ;;
   649                           
   650                           	psect	intcodelo
   651  000018                     __pintcodelo:
   652                           	opt stack 0
   653  000018                     _LowIsr:
   654                           	opt stack 27
   655                           
   656                           ;incstack = 0
   657  000018  CFD8 F002          	movff	status,??_LowIsr
   658  00001C  CFE8 F003          	movff	wreg,??_LowIsr+1
   659  000020  CFE0 F004          	movff	bsr,??_LowIsr+2
   660                           
   661                           ;main.c: 53: if (PIR1bits.RCIF && PIE1bits.RCIE)
   662  000024  BA9E               	btfsc	3998,5,c	;volatile
   663  000026  AA9D               	btfss	3997,5,c	;volatile
   664  000028  D015               	goto	i1l32
   665                           
   666                           ;main.c: 54: {
   667                           ;main.c: 55: int a = RCREG;
   668  00002A  50AE               	movf	4014,w,c	;volatile
   669                           
   670                           ;main.c: 57: if (InputC1())
   671  00002C  ECC7  F000         	call	_InputC1	;wreg free
   672  000030  E304               	bnc	i1l790
   673                           
   674                           ;main.c: 58: UartSendByte(89);
   675  000032  0E59               	movlw	89
   676  000034  ECB5  F000         	call	_UartSendByte
   677  000038  D003               	goto	i1l792
   678  00003A                     i1l790:
   679                           
   680                           ;main.c: 59: else
   681                           ;main.c: 60: UartSendByte(78);
   682  00003A  0E4E               	movlw	78
   683  00003C  ECB5  F000         	call	_UartSendByte
   684  000040                     i1l792:
   685                           
   686                           ;main.c: 62: if (InputC2())
   687  000040  ECBF  F000         	call	_InputC2	;wreg free
   688  000044  E304               	bnc	i1l796
   689                           
   690                           ;main.c: 63: UartSendByte(89);
   691  000046  0E59               	movlw	89
   692  000048  ECB5  F000         	call	_UartSendByte
   693  00004C  D003               	goto	i1l32
   694  00004E                     i1l796:
   695                           
   696                           ;main.c: 64: else
   697                           ;main.c: 65: UartSendByte(78);
   698  00004E  0E4E               	movlw	78
   699  000050  ECB5  F000         	call	_UartSendByte
   700  000054                     i1l32:
   701  000054  C004  FFE0         	movff	??_LowIsr+2,bsr
   702  000058  C003  FFE8         	movff	??_LowIsr+1,wreg
   703  00005C  C002  FFD8         	movff	??_LowIsr,status
   704  000060  0010               	retfie	
   705  000062                     __end_of_LowIsr:
   706                           	opt stack 0
   707                           tblptru	equ	0xFF8
   708                           intcon	equ	0xFF2
   709                           wreg	equ	0xFE8
   710                           bsr	equ	0xFE0
   711                           status	equ	0xFD8
   712                           
   713 ;; *************** function _UartSendByte *****************
   714 ;; Defined at:
   715 ;;		line 56 in file "uart.c"
   716 ;; Parameters:    Size  Location     Type
   717 ;;  data            1    wreg     unsigned char 
   718 ;; Auto vars:     Size  Location     Type
   719 ;;  data            1    0[COMRAM] unsigned char 
   720 ;; Return value:  Size  Location     Type
   721 ;;		None               void
   722 ;; Registers used:
   723 ;;		wreg
   724 ;; Tracked objects:
   725 ;;		On entry : 0/0
   726 ;;		On exit  : 0/0
   727 ;;		Unchanged: 0/0
   728 ;; Data sizes:     COMRAM   BANK0   BANK1   BANK2
   729 ;;      Params:         0       0       0       0
   730 ;;      Locals:         1       0       0       0
   731 ;;      Temps:          0       0       0       0
   732 ;;      Totals:         1       0       0       0
   733 ;;Total ram usage:        1 bytes
   734 ;; Hardware stack levels used:    1
   735 ;; Hardware stack levels required when called:    1
   736 ;; This function calls:
   737 ;;		Nothing
   738 ;; This function is called by:
   739 ;;		_LowIsr
   740 ;; This function uses a non-reentrant model
   741 ;;
   742                           
   743                           	psect	text6
   744  00016A                     __ptext6:
   745                           	opt stack 0
   746  00016A                     _UartSendByte:
   747                           	opt stack 27
   748                           
   749                           ;incstack = 0
   750                           ;UartSendByte@data stored from wreg
   751  00016A  6E01               	movwf	UartSendByte@data,c
   752  00016C                     i1l90:
   753  00016C  A2AC               	btfss	4012,1,c	;volatile
   754  00016E  D7FE               	goto	i1l90
   755                           
   756                           ;uart.c: 59: PORTDbits.RD4 = 1;
   757  000170  8883               	bsf	3971,4,c	;volatile
   758                           
   759                           ;uart.c: 60: TXREG = data;
   760  000172  C001  FFAD         	movff	UartSendByte@data,4013	;volatile
   761  000176                     i1l93:
   762  000176  A2AC               	btfss	4012,1,c	;volatile
   763  000178  D7FE               	goto	i1l93
   764                           
   765                           ;uart.c: 62: PORTDbits.RD4 = 0;
   766  00017A  9883               	bcf	3971,4,c	;volatile
   767  00017C  0012               	return		;funcret
   768  00017E                     __end_of_UartSendByte:
   769                           	opt stack 0
   770                           tblptru	equ	0xFF8
   771                           intcon	equ	0xFF2
   772                           wreg	equ	0xFE8
   773                           bsr	equ	0xFE0
   774                           status	equ	0xFD8
   775                           
   776 ;; *************** function _InputC2 *****************
   777 ;; Defined at:
   778 ;;		line 27 in file "input.c"
   779 ;; Parameters:    Size  Location     Type
   780 ;;		None
   781 ;; Auto vars:     Size  Location     Type
   782 ;;		None
   783 ;; Return value:  Size  Location     Type
   784 ;;		None               void
   785 ;; Registers used:
   786 ;;		wreg, status,0
   787 ;; Tracked objects:
   788 ;;		On entry : 0/0
   789 ;;		On exit  : 0/0
   790 ;;		Unchanged: 0/0
   791 ;; Data sizes:     COMRAM   BANK0   BANK1   BANK2
   792 ;;      Params:         0       0       0       0
   793 ;;      Locals:         0       0       0       0
   794 ;;      Temps:          1       0       0       0
   795 ;;      Totals:         1       0       0       0
   796 ;;Total ram usage:        1 bytes
   797 ;; Hardware stack levels used:    1
   798 ;; Hardware stack levels required when called:    1
   799 ;; This function calls:
   800 ;;		Nothing
   801 ;; This function is called by:
   802 ;;		_LowIsr
   803 ;; This function uses a non-reentrant model
   804 ;;
   805                           
   806                           	psect	text7
   807  00017E                     __ptext7:
   808                           	opt stack 0
   809  00017E                     _InputC2:
   810                           	opt stack 27
   811                           
   812                           ;input.c: 29: return PORTDbits.RD6;
   813                           
   814                           ;incstack = 0
   815  00017E  AC83               	btfss	3971,6,c	;volatile
   816  000180  D003               	goto	i1u4_20
   817  000182  6A01               	clrf	??_InputC2& (0+255),c
   818  000184  2A01               	incf	??_InputC2& (0+255),f,c
   819  000186  D001               	goto	i1u4_28
   820  000188                     i1u4_20:
   821  000188  6A01               	clrf	??_InputC2& (0+255),c
   822  00018A                     i1u4_28:
   823  00018A  3001               	rrcf	??_InputC2,w,c
   824  00018C  0012               	return		;funcret
   825  00018E                     __end_of_InputC2:
   826                           	opt stack 0
   827                           tblptru	equ	0xFF8
   828                           intcon	equ	0xFF2
   829                           wreg	equ	0xFE8
   830                           bsr	equ	0xFE0
   831                           status	equ	0xFD8
   832                           
   833 ;; *************** function _InputC1 *****************
   834 ;; Defined at:
   835 ;;		line 18 in file "input.c"
   836 ;; Parameters:    Size  Location     Type
   837 ;;		None
   838 ;; Auto vars:     Size  Location     Type
   839 ;;		None
   840 ;; Return value:  Size  Location     Type
   841 ;;		None               void
   842 ;; Registers used:
   843 ;;		wreg, status,0
   844 ;; Tracked objects:
   845 ;;		On entry : 0/0
   846 ;;		On exit  : 0/0
   847 ;;		Unchanged: 0/0
   848 ;; Data sizes:     COMRAM   BANK0   BANK1   BANK2
   849 ;;      Params:         0       0       0       0
   850 ;;      Locals:         0       0       0       0
   851 ;;      Temps:          1       0       0       0
   852 ;;      Totals:         1       0       0       0
   853 ;;Total ram usage:        1 bytes
   854 ;; Hardware stack levels used:    1
   855 ;; Hardware stack levels required when called:    1
   856 ;; This function calls:
   857 ;;		Nothing
   858 ;; This function is called by:
   859 ;;		_LowIsr
   860 ;; This function uses a non-reentrant model
   861 ;;
   862                           
   863                           	psect	text8
   864  00018E                     __ptext8:
   865                           	opt stack 0
   866  00018E                     _InputC1:
   867                           	opt stack 27
   868                           
   869                           ;input.c: 20: return PORTDbits.RD5;
   870                           
   871                           ;incstack = 0
   872  00018E  AA83               	btfss	3971,5,c	;volatile
   873  000190  D003               	goto	i1u1_20
   874  000192  6A01               	clrf	??_InputC1& (0+255),c
   875  000194  2A01               	incf	??_InputC1& (0+255),f,c
   876  000196  D001               	goto	i1u1_28
   877  000198                     i1u1_20:
   878  000198  6A01               	clrf	??_InputC1& (0+255),c
   879  00019A                     i1u1_28:
   880  00019A  3001               	rrcf	??_InputC1,w,c
   881  00019C  0012               	return		;funcret
   882  00019E                     __end_of_InputC1:
   883                           	opt stack 0
   884                           tblptru	equ	0xFF8
   885                           intcon	equ	0xFF2
   886                           wreg	equ	0xFE8
   887                           bsr	equ	0xFE0
   888                           status	equ	0xFD8
   889                           
   890 ;; *************** function _HighIsr *****************
   891 ;; Defined at:
   892 ;;		line 69 in file "main.c"
   893 ;; Parameters:    Size  Location     Type
   894 ;;		None
   895 ;; Auto vars:     Size  Location     Type
   896 ;;		None
   897 ;; Return value:  Size  Location     Type
   898 ;;		None               void
   899 ;; Registers used:
   900 ;;		None
   901 ;; Tracked objects:
   902 ;;		On entry : 0/0
   903 ;;		On exit  : 0/0
   904 ;;		Unchanged: 0/0
   905 ;; Data sizes:     COMRAM   BANK0   BANK1   BANK2
   906 ;;      Params:         0       0       0       0
   907 ;;      Locals:         0       0       0       0
   908 ;;      Temps:          0       0       0       0
   909 ;;      Totals:         0       0       0       0
   910 ;;Total ram usage:        0 bytes
   911 ;; Hardware stack levels used:    1
   912 ;; This function calls:
   913 ;;		Nothing
   914 ;; This function is called by:
   915 ;;		Interrupt level 2
   916 ;; This function uses a non-reentrant model
   917 ;;
   918                           
   919                           	psect	intcode
   920  000008                     __pintcode:
   921                           	opt stack 0
   922  000008                     _HighIsr:
   923                           	opt stack 27
   924                           
   925                           ;incstack = 0
   926  000008  EFD9  F000         	goto	int_func
   927                           tblptru	equ	0xFF8
   928                           intcon	equ	0xFF2
   929                           wreg	equ	0xFE8
   930                           bsr	equ	0xFE0
   931                           status	equ	0xFD8
   932                           tblptru	equ	0xFF8
   933                           intcon	equ	0xFF2
   934                           wreg	equ	0xFE8
   935                           bsr	equ	0xFE0
   936                           status	equ	0xFD8
   937                           
   938                           	psect	rparam
   939  0000                     tblptru	equ	0xFF8
   940                           intcon	equ	0xFF2
   941                           wreg	equ	0xFE8
   942                           bsr	equ	0xFE0
   943                           status	equ	0xFD8


Data Sizes:
    Strings     0
    Constant    0
    Data        0
    BSS         0
    Persistent  0
    Stack       0

Auto Spaces:
    Space          Size  Autos    Used
    COMRAM           95     14      14
    BANK0           160      0       0
    BANK1           256      0       0
    BANK2           256      0       0

Pointer List with Targets:

    None.

Critical Paths under _main in COMRAM

    _main->_UARTInit

Critical Paths under _LowIsr in COMRAM

    _LowIsr->_InputC1
    _LowIsr->_InputC2
    _LowIsr->_UartSendByte

Critical Paths under _HighIsr in COMRAM

    None.

Critical Paths under _main in BANK0

    None.

Critical Paths under _LowIsr in BANK0

    None.

Critical Paths under _HighIsr in BANK0

    None.

Critical Paths under _main in BANK1

    None.

Critical Paths under _LowIsr in BANK1

    None.

Critical Paths under _HighIsr in BANK1

    None.

Critical Paths under _main in BANK2

    None.

Critical Paths under _LowIsr in BANK2

    None.

Critical Paths under _HighIsr in BANK2

    None.

Call Graph Tables:

 ---------------------------------------------------------------------------------
 (Depth) Function   	        Calls       Base Space   Used Autos Params    Refs
 ---------------------------------------------------------------------------------
 (0) _main                                                 3     3      0     247
                          _InputInit
           _UARTAddressDetection_OFF
                           _UARTInit
                           _delay_ms
 ---------------------------------------------------------------------------------
 (1) _delay_ms                                             5     3      2     132
                                              4 COMRAM     5     3      2
 ---------------------------------------------------------------------------------
 (1) _UARTInit                                            10     6      4     115
                                              4 COMRAM    10     6      4
 ---------------------------------------------------------------------------------
 (1) _UARTAddressDetection_OFF                             0     0      0       0
 ---------------------------------------------------------------------------------
 (1) _InputInit                                            0     0      0       0
 ---------------------------------------------------------------------------------
 Estimated maximum stack depth 1
 ---------------------------------------------------------------------------------
 (Depth) Function   	        Calls       Base Space   Used Autos Params    Refs
 ---------------------------------------------------------------------------------
 (2) _LowIsr                                               5     5      0      15
                                              1 COMRAM     3     3      0
                            _InputC1
                            _InputC2
                       _UartSendByte
 ---------------------------------------------------------------------------------
 (3) _UartSendByte                                         1     1      0      15
                                              0 COMRAM     1     1      0
 ---------------------------------------------------------------------------------
 (3) _InputC2                                              1     1      0       0
                                              0 COMRAM     1     1      0
 ---------------------------------------------------------------------------------
 (3) _InputC1                                              1     1      0       0
                                              0 COMRAM     1     1      0
 ---------------------------------------------------------------------------------
 Estimated maximum stack depth 3
 ---------------------------------------------------------------------------------
 (Depth) Function   	        Calls       Base Space   Used Autos Params    Refs
 ---------------------------------------------------------------------------------
 (4) _HighIsr                                              0     0      0       0
 ---------------------------------------------------------------------------------
 Estimated maximum stack depth 4
 ---------------------------------------------------------------------------------

 Call Graph Graphs:

 _main (ROOT)
   _InputInit
   _UARTAddressDetection_OFF
   _UARTInit
   _delay_ms

 _LowIsr (ROOT)
   _InputC1
   _InputC2
   _UartSendByte

 _HighIsr (ROOT)

 Address spaces:
Name               Size   Autos  Total    Cost      Usage
BITCOMRAM           5F      0       0       0        0.0%
EEDATA             100      0       0       0        0.0%
NULL                 0      0       0       0        0.0%
CODE                 0      0       0       0        0.0%
COMRAM              5F      E       E       1       14.7%
STACK                0      0       0       2        0.0%
ABS                  0      0       0       3        0.0%
BITBANK0            A0      0       0       4        0.0%
BANK0               A0      0       0       5        0.0%
BITBANK1           100      0       0       6        0.0%
BANK1              100      0       0       7        0.0%
BITBANK2           100      0       0       8        0.0%
BANK2              100      0       0       9        0.0%
BIGRAM             2FF      0       0      10        0.0%
DATA                 0      0       0      11        0.0%
BITSFR               0      0       0      40        0.0%
SFR                  0      0       0      40        0.0%


Microchip Technology PIC18 Macro Assembler V1.34 build -361300703 
Symbol Table                                                                                   Thu May 14 22:45:20 2015

                 UARTInit@baudrate 0005                                 l38 015C  
                               l46 0136                                 l82 0100  
                               bsr 000FE0                       __CFG_CP0$OFF 000000  
                     __CFG_CP1$OFF 000000                       __CFG_CP2$OFF 000000  
                     __CFG_CP3$OFF 000000                                l870 009A  
                              l862 007E                                l960 00B8  
                              l864 0086                                l848 014A  
                              l962 00DC                                l970 00D0  
                              l866 008E                                l874 00A2  
                              l964 00E8                                l972 00D6  
                              l868 0094                                l966 00F4  
                              l968 00C8                       __CFG_CPB$OFF 000000  
                              u117 0150                       __CFG_CPD$OFF 000000  
                              wreg 000FE8                       __CFG_IESO$ON 000000  
                     __CFG_LVP$OFF 000000                               i1l32 0054  
                             i1l90 016C                               i1l93 0176  
                    __CFG_FCMEN$ON 000000                               _main 010E  
                             start 0062                    __end_of_HighIsr 01B4  
                    __CFG_MCLRE$ON 000000                       ___param_bank 000010  
         _UARTAddressDetection_OFF 01AE                    __end_of_InputC1 019E  
                  __end_of_InputC2 018E                              ?_main 0001  
                            i1l790 003A                              i1l792 0040  
                            i1l796 004E                              _RCREG 000FAE  
                            _RCSTA 000FAB                              _SPBRG 000FAF  
                            _TXREG 000FAD                              _TXSTA 000FAC  
                    __CFG_WRT0$OFF 000000                      __CFG_WRT1$OFF 000000  
                    __CFG_WRT2$OFF 000000                      __CFG_WRT3$OFF 000000  
                   __CFG_EBTR0$OFF 000000                     __CFG_EBTR1$OFF 000000  
                   __CFG_EBTR2$OFF 000000                     __CFG_EBTR3$OFF 000000  
                 __end_of_UARTInit 010E                      __CFG_WRTB$OFF 000000  
                    __CFG_WRTC$OFF 000000                      __CFG_WRTD$OFF 000000  
                   __CFG_EBTRB$OFF 000000                     __CFG_BOREN$OFF 000000  
                            status 000FD8                    __initialization 019E  
                   __CFG_HPOL$HIGH 000000                       __end_of_main 0144  
                   __CFG_OSC$HSPLL 000000                     __CFG_LPOL$HIGH 000000  
                           ??_main 000F                      __activetblptr 000002  
                   __CFG_WDTEN$OFF 000000                     __CFG_WINEN$OFF 000000  
                           i1u1_20 0198                             _SPBRGH 000FB0  
                           i1u1_28 019A                             i1u4_20 0188  
                           i1u4_28 018A                          ??_HighIsr 0001  
                 __end_of_delay_ms 016A                          ??_InputC1 0001  
                        ??_InputC2 0001                     __CFG_PWRTEN$ON 000000  
                   __CFG_SSPMX$RD1 000000                             _LowIsr 0018  
               __size_of_InputInit 0006                     __CFG_STVREN$ON 000000  
                           tblptru 000FF8                         __accesstop 0060  
          __end_of__initialization 019E                    __CFG_FLTAMX$RC1 000000  
                    ___rparam_used 000001                    __CFG_T1OSCMX$ON 000000  
                   __pcstackCOMRAM 0001                          ?_UARTInit 0005  
                __end_of_InputInit 01AE         ??_UARTAddressDetection_OFF 0005  
                    ?_UartSendByte 0001                            ?_LowIsr 0001  
                       ??_UARTInit 0009                    __CFG_WDPS$32768 000000  
                  __CFG_PWM4MX$RB5 000000                          ?_delay_ms 0005  
                  __CFG_PWMPIN$OFF 000000                            _HighIsr 0008  
                   ??_UartSendByte 0001                            _InputC1 018E  
                          _InputC2 017E                            __Hparam 0000  
                          __Lparam 0000                    __size_of_LowIsr 004A  
                          __pcinit 019E                            __ramtop 0300  
                          __ptext0 010E                            __ptext1 0144  
                          __ptext2 0066                            __ptext3 01AE  
                          __ptext4 01A8                            __ptext6 016A  
                          __ptext7 017E                            __ptext8 018E  
                       ??_delay_ms 0007                     __pintcode_body 01B2  
             end_of_initialization 019E                      __Lmediumconst 0000  
                          int_func 01B2                          _RCSTAbits 000FAB  
                        _PORTDbits 000F83                          _TRISCbits 000F94  
                        _TRISDbits 000F95                    UARTInit@divisor 000D  
                        _TXSTAbits 000FAC                     __end_of_LowIsr 0062  
                 __CFG_EXCLKMX$RC3 000000                      delay_ms@delay 0005  
                      _BAUDCONbits 000FAA                  __size_of_UARTInit 00A8  
                      _BAUDCTLbits 000FAA                start_initialization 019E  
             __end_of_UartSendByte 017E                          _InputInit 01A8  
                         ??_LowIsr 0002                  __size_of_delay_ms 0026  
                       ?_InputInit 0001                           ?_HighIsr 0001  
                         ?_InputC1 0001                           ?_InputC2 0001  
                        __pintcode 0008                        __pintcodelo 0018  
__size_of_UARTAddressDetection_OFF 0004          ?_UARTAddressDetection_OFF 0001  
                 UartSendByte@data 0001                          delay_ms@i 0008  
                         _IPR1bits 000F9F                           _PIE1bits 000F9D  
                         _PIR1bits 000F9E                           _RCONbits 000FD0  
                         _UARTInit 0066              __size_of_UartSendByte 0014  
                      ??_InputInit 0005                   __size_of_HighIsr 01AC  
                         __Hrparam 0000                   __size_of_InputC1 0010  
                 __size_of_InputC2 0010                       _UartSendByte 016A  
                         __Lrparam 0000                           _delay_ms 0144  
                    __size_of_main 0036                         _INTCONbits 000FF2  
                         intlevel1 0000                           intlevel2 0000  
 __end_of_UARTAddressDetection_OFF 01B2  
